; Function Attrs: mustprogress nounwind uwtable
define void @_ZN10open_spiel9solitaire4Pile8SetCardsESt6vectorINS0_4CardESaIS3_EE(ptr nocapture noundef nonnull align 8 dereferenceable(48) %0, ptr nocapture noundef %1) local_unnamed_addr #4 align 2 personality ptr @__gxx_personality_v0 {
  %3 = getelementptr inbounds nuw i8, ptr %0, i64 8
  %4 = load ptr, ptr %3, align 8
  %5 = getelementptr inbounds i8, ptr %0, i64 16
  %6 = getelementptr inbounds i8, ptr %0, i64 24
  %7 = load ptr, ptr %6, align 8
  %8 = load ptr, ptr %1, align 8
  store ptr %8, ptr %3, align 8
  %9 = getelementptr inbounds nuw i8, ptr %1, i64 8
  %10 = load ptr, ptr %9, align 8
  store ptr %10, ptr %5, align 8
  %11 = getelementptr inbounds nuw i8, ptr %1, i64 16
  %12 = load ptr, ptr %11, align 8
  store ptr %12, ptr %6, align 8
  %.not.i.i.i.i.i = icmp eq ptr %4, null
  tail call void @llvm.memset.p0.i64(ptr noundef nonnull align 8 dereferenceable(24) %1, i8 0, i64 24, i1 false)
  br i1 %.not.i.i.i.i.i, label %_ZNSt6vectorIN10open_spiel9solitaire4CardESaIS2_EEaSEOS4_.exit, label %13

13:                                               ; preds = %2
  %14 = ptrtoint ptr %7 to i64
  %15 = ptrtoint ptr %4 to i64
  %16 = sub i64 %14, %15
  tail call void @_ZdlPvm(ptr noundef nonnull %4, i64 noundef %16) #34
  br label %_ZNSt6vectorIN10open_spiel9solitaire4CardESaIS2_EEaSEOS4_.exit

_ZNSt6vectorIN10open_spiel9solitaire4CardESaIS2_EEaSEOS4_.exit: ; preds = %2, %13
  ret void
}